ccopy_reg
_reconstructor
p1
(cnltk.tag.sequential
BigramTagger
p2
c__builtin__
object
p3
NtRp4
(dp5
S'_taggers'
p6
(lp7
g4
ag1
(cnltk.tag.sequential
UnigramTagger
p8
g3
NtRp9
(dp10
g6
(lp11
g9
ag1
(cnltk.tag.sequential
RegexpTagger
p12
g3
NtRp13
(dp14
g6
(lp15
g13
asS'_size'
p16
I9
sS'_regexs'
p17
cre
_compile
p18
(S'(?P<g0>^(from)$)|(?P<g1>^to(wards)?$)|(?P<g2>^(and|&)$)|(?P<g3>^city$)|(?P<g4>^line$)|(?P<g5>.*bound$)|(?P<g6>^(please|thanks|thank|you)$)|(?P<g7>^docklands (light rail(way)?)?$)|(?P<g8>.*)'
p19
I0
tRp20
sS'_map'
p21
(dp22
S'g7'
p23
S'DLR_LINE_NAME'
p24
sS'g6'
p25
NsS'g5'
p26
S'DIRECTION'
p27
sS'g4'
p28
S'LINE'
p29
sS'g3'
p30
S'CITY'
p31
sS'g2'
p32
S'AND'
p33
sS'g1'
p34
S'TO'
p35
sS'g0'
p36
S'FROM'
p37
sS'g8'
p38
S'UNKNOWN'
p39
ssbasS'_n'
p40
I1
sS'_context_to_tag'
p41
(dp42
S'mudchute'
p43
S'STATION_WORD'
p44
sS'all'
p45
g44
sS'beckton'
p46
g44
sS'northolt'
p47
g44
sS'barking'
p48
g44
sS'leicester'
p49
g44
sS'ickenham'
p50
g44
sS'greenford'
p51
g44
sS'langdon'
p52
g44
sS'poplar'
p53
g44
sS'canary'
p54
g44
sS'cross'
p55
g44
sS'mile'
p56
g44
sS'london'
p57
g44
sS'barons'
p58
g44
sS'mansion'
p59
g44
sS'broadway'
p60
g44
sS'barbican'
p61
g44
sS'avenue'
p62
g44
sS'prince'
p63
g44
sS'arnos'
p64
g44
sS'mornington'
p65
g44
sS'marble'
p66
g44
sS'colliers'
p67
g44
sS'(circle'
p68
g44
sS'park'
p69
g44
sS'hills'
p70
g44
sS'northern'
p71
S'TUBE_LINE_WORD'
p72
sS'upton'
p73
g44
sS'square'
p74
g44
sS'heron'
p75
g44
sS'royal'
p76
g44
sS'woolwich'
p77
g44
sS'abbey'
p78
g44
sS'croxley'
p79
g44
sS'terminal'
p80
g44
sS'bush'
p81
g44
sS'wood'
p82
g44
sS'4'
g44
sS'2,'
p83
g44
sS'knightsbridge'
p84
g44
sS'circle'
p85
g72
sS'east'
p86
g44
sS'epping'
p87
g44
sS'woodside'
p88
g44
sS'rickmansworth'
p89
g44
sS'junction'
p90
g44
sS'garden'
p91
g44
sS'roding'
p92
g44
sS'hornchurch'
p93
g44
sS'cannon'
p94
g44
sS'latimer'
p95
g44
sS'queensway'
p96
g44
sS'loughton'
p97
g44
sS'dock'
p98
g44
sS'fulham'
p99
g44
sS'hale'
p100
g44
sS'northwick'
p101
g44
sS'stockwell'
p102
g44
sS'oxford'
p103
g44
sS'piccadilly)'
p104
g44
sS'burnt'
p105
g44
sS'harrow'
p106
g44
sS'bank'
p107
g44
sS'holloway'
p108
g44
sS'hammersmith'
p109
g72
sS'perivale'
p110
g44
sS'golders'
p111
g44
sS'whitechapel'
p112
g44
sS'edgware'
p113
g44
sS'dollis'
p114
g44
sS'walthamstow'
p115
g44
sS'cockfosters'
p116
g44
sS'baker'
p117
g44
sS'uxbridge'
p118
g44
sS'clapham'
p119
g44
sS'common'
p120
g44
sS'embankment'
p121
g44
sS'harlesden'
p122
g44
sS'warren'
p123
g44
sS'stratford'
p124
g44
sS'tower'
p125
g44
sS'ealing'
p126
g44
sS'bond'
p127
g44
sS'wealdstone'
p128
g44
sS'hanger'
p129
g44
sS'old'
p130
g44
sS'house'
p131
g44
sS'chesham'
p132
g44
sS'brixton'
p133
g44
sS'neasden'
p134
g44
sS'covent'
p135
g44
sS'finchley'
p136
g44
sS'caledonian'
p137
g44
sS'street'
p138
g44
sS"earl's"
p139
g44
sS'crescent'
p140
g44
sS'corner'
p141
g44
sS'pancras'
p142
g44
sS'star'
p143
g44
sS'euston'
p144
g44
sS'bromley-by-bow'
p145
g44
sS'brent'
p146
g44
sS'heathway'
p147
g44
sS'canada'
p148
g44
sS'amersham'
p149
g44
sS'islington'
p150
g44
sS'southwark'
p151
g44
sS'pimlico'
p152
g44
sS'cyprus'
p153
g44
sS'lewisham'
p154
g44
sS'kensington'
p155
g44
sS"james's"
p156
g44
sS'canons'
p157
g44
sS'gateway'
p158
g44
sS'debden'
p159
g44
sS'dlr'
p160
g72
sS'3'
g44
sS'moor'
p161
g44
sS'bermondsey'
p162
g44
sS'hill'
p163
g44
sS'morden'
p164
g44
sS'international'
p165
g44
sS'wembley'
p166
g44
sS'brompton'
p167
g44
sS'temple'
p168
g44
sS'gate'
p169
g44
sS'bethnal'
p170
g44
sS'lancaster'
p171
g44
sS'westferry'
p172
g44
sS'jubilee'
p173
g72
sS'piccadilly'
p174
g72
sS'hampstead'
p175
g44
sS'monument'
p176
g44
sS'pontoon'
p177
g44
sS"shepherd's"
p178
g44
sS'vale'
p179
g44
sS'crossharbour'
p180
g44
sS'paddington'
p181
g44
sS'colindale'
p182
g44
sS'charing'
p183
g44
sS'snaresbrook'
p184
g44
sS'deptford'
p185
g44
sS'chigwell'
p186
g44
sS'kew'
p187
g44
sS'victoria'
p188
g72
sS'redbridge'
p189
g44
sS'stepney'
p190
g44
sS'moorgate'
p191
g44
sS'chorleywood'
p192
g44
sS'water'
p193
g44
sS'great'
p194
g44
sS'central'
p195
g72
sS'waterloo'
p196
g72
sS'hainault'
p197
g44
sS'island'
p198
g44
sS'archway'
p199
g44
sS'elm'
p200
g44
sS'terminals'
p201
g44
sS'hendon'
p202
g44
sS'bow'
p203
g44
sS'gants'
p204
g44
sS'airport'
p205
g44
sS'pudding'
p206
g44
sS'castle'
p207
g44
sS'canning'
p208
g44
sS'south'
p209
g44
sS'(district'
p210
g44
sS'regent'
p211
g44
sS'silvertown'
p212
g44
sS'saints'
p213
g44
sS'arsenal'
p214
g44
sS'upney'
p215
g44
sS'city)'
p216
g44
sS'watford'
p217
g44
sS'church'
p218
g44
sS'oval'
p219
g44
sS'theydon'
p220
g44
sS'stonebridge'
p221
g44
sS'george'
p222
g44
sS'market'
p223
g44
sS'kentish'
p224
g44
sS'sark'
p225
g44
sS'chiswick'
p226
g44
sS'southfields'
p227
g44
sS'russell'
p228
g44
sS'district'
p229
g72
sS'totteridge'
p230
g44
sS'west'
p231
g44
sS'st.'
p232
g44
sS'limehouse'
p233
g44
sS'eastcote'
p234
g44
sS'finsbury'
p235
g44
sS'custom'
p236
g44
sS'grange'
p237
g44
sS'goodge'
p238
g44
sS'putney'
p239
g44
sS'white'
p240
g44
sS'valley'
p241
g44
sS'newbury'
p242
g44
sS'cutty'
p243
g44
sS'goldhawk'
p244
g44
sS'stamford'
p245
g44
sS'aldgate'
p246
g44
sS'quay'
p247
g44
sS'dagenham'
p248
g44
sS'on'
p249
g44
sS'warwick'
p250
g44
sS'albert'
p251
g44
sS'holborn'
p252
g44
sS'northwood'
p253
g44
sS'kensal'
p254
g44
sS'mill'
p255
g44
sS'alperton'
p256
g44
sS'westbourne'
p257
g44
sS'camden'
p258
g44
sS'cottage'
p259
g44
sS'kennington'
p260
g44
sS'osterley'
p261
g44
sS'gunnersbury'
p262
g44
sS'shadwell'
p263
g44
sS'blackwall'
p264
g44
sS'town'
p265
g44
sS'king'
p266
g44
sS'queensbury'
p267
g44
sS'holland'
p268
g44
sS'sloane'
p269
g44
sS'blackfriars'
p270
g44
sS'willesden'
p271
g44
sS'bec'
p272
g44
sS'richmond'
p273
g44
sS'woodford'
p274
g44
sS'bounds'
p275
g44
sS'hounslow'
p276
g44
sS'chalk'
p277
g44
sS'vauxhall'
p278
g44
sS'v'
g44
sS'hyde'
p279
g44
sS'(bakerloo)'
p280
g44
sS'southgate'
p281
g44
sS'barkingside'
p282
g44
sS'1,'
p283
g44
sS'bakerloo'
p284
g72
sS'sudbury'
p285
g44
sS'bridge'
p286
g44
sS'seven'
p287
g44
sS'wanstead'
p288
g44
sS'belsize'
p289
g44
sS'angel'
p290
g44
sS'leytonstone'
p291
g44
sS'gallions'
p292
g44
sS'preston'
p293
g44
sS'circus'
p294
g44
sS'india'
p295
g44
sS'chalfont'
p296
g44
sS'blackhorse'
p297
g44
sS'tooting'
p298
g44
sS'high'
p299
g44
sS'tufnell'
p300
g44
sS'(hammersmith'
p301
g44
sS"queen's"
p302
g44
sS'kilburn'
p303
g44
sS'kingsbury'
p304
g44
sS'devons'
p305
g44
sS'north'
p306
g44
sS'greenwich'
p307
g44
sS'portland'
p308
g44
sS'marylebone'
p309
g44
sS'hillingdon'
p310
g44
sS'lambeth'
p311
g44
sS'borough'
p312
g44
sS'end'
p313
g44
sS'turnpike'
p314
g44
sS'farringdon'
p315
g44
sS'oakwood'
p316
g44
sS'leyton'
p317
g44
sS'oak'
p318
g44
sS"king's"
p319
g44
sS'barnet'
p320
g44
sS'heathrow'
p321
g44
sS'westminster'
p322
g44
sS'acton'
p323
g44
sS'5'
g44
sS'plaistow'
p324
g44
sS'quays'
p325
g44
sS'elephant'
p326
g44
sS'hatton'
p327
g44
sS'maida'
p328
g44
sS'kenton'
p329
g44
sS'bois'
p330
g44
sS'wimbledon'
p331
g44
sS'court'
p332
g44
sS'pinner'
p333
g44
sS'highgate'
p334
g44
sS'ham'
p335
g44
sS'fairlop'
p336
g44
sS'northfields'
p337
g44
sS'manor'
p338
g44
sS'farm'
p339
g44
sS'highbury'
p340
g44
sS'liverpool'
p341
g44
sS'wharf'
p342
g44
sS'reach'
p343
g44
sS'rayners'
p344
g44
sS'elverson'
p345
g44
sS'(olympia)'
p346
g44
sS'boston'
p347
g44
sS'notting'
p348
g44
sS'ruislip'
p349
g44
sS'stanmore'
p350
g44
sS'sisters'
p351
g44
sS'bayswater'
p352
g44
sS'chancery'
p353
g44
sS'arch'
p354
g44
sS'ravenscourt'
p355
g44
sS'whetstone'
p356
g44
sS'lane'
p357
g44
sS"john's"
p358
g44
sS'upminster'
p359
g44
sS'turnham'
p360
g44
sS'metropolitan'
p361
g72
sS'grove'
p362
g44
sS'brook'
p363
g44
sS'parsons'
p364
g44
sS"regent's"
p365
g44
sS'becontree'
p366
g44
sS'buckhurst'
p367
g44
sS'balham'
p368
g44
sS'green'
p369
g44
sS'road'
p370
g44
sS"paul's"
p371
g44
sS'swiss'
p372
g44
sS'the'
p373
g44
sS'gloucester'
p374
g44
sS'tottenham'
p375
g44
sS'gardens'
p376
g44
sS'ladbroke'
p377
g44
ssbag13
asg40
I2
sg41
(dp378
((g37
tS'piccadilly'
p379
tp380
g44
s((g37
tS'victoria'
p381
tp382
g44
s((g44
tS'hammersmith'
p383
tp384
g44
s((g44
tS'victoria'
p385
tp386
g44
s((g35
tg379
tp387
g44
s((g37
tS'hammersmith'
p388
tp389
g44
s((g35
tg381
tp390
g44
s((g35
tS'waterloo'
p391
tp392
g44
s((tg391
tp393
g72
s((tg381
tp394
g72
s((tg379
tp395
g72
s((g44
tS'central'
p396
tp397
g44
s((tg388
tp398
g72
s((g37
tg391
tp399
g44
s((g35
tg388
tp400
g44
ssb.