ccopy_reg
_reconstructor
p1
(cnltk.tag.sequential
BigramTagger
p2
c__builtin__
object
p3
NtRp4
(dp5
S'_taggers'
p6
(lp7
g4
ag1
(cnltk.tag.sequential
UnigramTagger
p8
g3
NtRp9
(dp10
g6
(lp11
g9
ag1
(cnltk.tag.sequential
RegexpTagger
p12
g3
NtRp13
(dp14
g6
(lp15
g13
asS'_regexps'
p16
(lp17
(S'^(from)$'
p18
S'FROM'
p19
tp20
a(S'^to(wards)?$'
p21
S'TO'
p22
tp23
a(S'^(and|&)$'
p24
S'AND'
p25
tp26
a(S'^city$'
p27
S'CITY'
p28
tp29
a(S'^line$'
p30
S'LINE'
p31
tp32
a(S'^(please|thanks|thank|you)$'
p33
Ntp34
a(S'^docklands (light rail(way)?)?$'
p35
S'DLR_LINE_NAME'
p36
tp37
a(S'.*'
p38
S'UNKNOWN'
p39
tp40
asbasS'_n'
p41
I1
sS'_context_to_tag'
p42
(dp43
S'mudchute'
p44
S'STATION_WORD'
p45
sS'all'
p46
g45
sS'beckton'
p47
g45
sS'northolt'
p48
g45
sS'barking'
p49
g45
sS'leicester'
p50
g45
sS'ickenham'
p51
g45
sS'rickmansworth'
p52
g45
sS'langdon'
p53
g45
sS'poplar'
p54
g45
sS'canary'
p55
g45
sS'kennington'
p56
g45
sS'mile'
p57
g45
sS'london'
p58
g45
sS'barons'
p59
g45
sS'mansion'
p60
g45
sS'broadway'
p61
g45
sS'paul'
p62
g45
sS'avenue'
p63
g45
sS'prince'
p64
g45
sS'arnos'
p65
g45
sS'mornington'
p66
g45
sS'colliers'
p67
g45
sS'park'
p68
g45
sS'hills'
p69
g45
sS'northern'
p70
S'TUBE_LINE_WORD'
p71
sS'upton'
p72
g45
sS'('
g45
sS'regent'
p73
g45
sS'royal'
p74
g45
sS','
g45
sS'abbey'
p75
g45
sS'croxley'
p76
g45
sS'terminal'
p77
g45
sS'bush'
p78
g45
sS'wood'
p79
g45
sS'4'
g45
sS'knightsbridge'
p80
g45
sS'circle'
p81
g71
sS'east'
p82
g45
sS'fairlop'
p83
g45
sS'epping'
p84
g45
sS'hammersmith'
p85
g71
sS'woodside'
p86
g45
sS'greenford'
p87
g45
sS'junction'
p88
g45
sS'garden'
p89
g45
sS'roding'
p90
g45
sS'hornchurch'
p91
g45
sS'cannon'
p92
g45
sS'latimer'
p93
g45
sS'queensway'
p94
g45
sS'loughton'
p95
g45
sS'dock'
p96
g45
sS'fulham'
p97
g45
sS'hale'
p98
g45
sS'northwick'
p99
g45
sS'stockwell'
p100
g45
sS'oxford'
p101
g45
sS'burnt'
p102
g45
sS'harrow'
p103
g45
sS'bank'
p104
g45
sS'holloway'
p105
g45
sS'earl'
p106
g45
sS'golders'
p107
g45
sS'whitechapel'
p108
g45
sS'edgware'
p109
g45
sS'dollis'
p110
g45
sS'walthamstow'
p111
g45
sS'cockfosters'
p112
g45
sS'queen'
p113
g45
sS'baker'
p114
g45
sS'uxbridge'
p115
g45
sS'clapham'
p116
g45
sS'common'
p117
g45
sS'embankment'
p118
g45
sS'james'
p119
g45
sS'warren'
p120
g45
sS'stratford'
p121
g45
sS'tower'
p122
g45
sS'ealing'
p123
g45
sS'bond'
p124
g45
sS'olympia'
p125
g45
sS'wealdstone'
p126
g45
sS'square'
p127
g45
sS'old'
p128
g45
sS'house'
p129
g45
sS'chesham'
p130
g45
sS'brixton'
p131
g45
sS'neasden'
p132
g45
sS'woolwich'
p133
g45
sS'finchley'
p134
g45
sS'caledonian'
p135
g45
sS'street'
p136
g45
sS'hyde'
p137
g45
sS'crescent'
p138
g45
sS'corner'
p139
g45
sS'pancras'
p140
g45
sS"'s"
p141
g45
sS'euston'
p142
g45
sS'barbican'
p143
g45
sS'brent'
p144
g45
sS'heathway'
p145
g45
sS'canada'
p146
g45
sS'amersham'
p147
g45
sS'islington'
p148
g45
sS'southwark'
p149
g45
sS'pimlico'
p150
g45
sS'cyprus'
p151
g45
sS'lewisham'
p152
g45
sS'kensington'
p153
g45
sS'canons'
p154
g45
sS'gateway'
p155
g45
sS'debden'
p156
g45
sS'dlr'
p157
g71
sS'3'
g45
sS'moor'
p158
g45
sS'bermondsey'
p159
g45
sS'hill'
p160
g45
sS'morden'
p161
g45
sS'international'
p162
g45
sS'wembley'
p163
g45
sS'brompton'
p164
g45
sS'temple'
p165
g45
sS'lambeth'
p166
g45
sS'gate'
p167
g45
sS'bethnal'
p168
g45
sS'lancaster'
p169
g45
sS'westferry'
p170
g45
sS'jubilee'
p171
g71
sS'piccadilly'
p172
g71
sS'hampstead'
p173
g45
sS'monument'
p174
g45
sS'pontoon'
p175
g45
sS'vale'
p176
g45
sS'theydon'
p177
g45
sS'paddington'
p178
g45
sS'colindale'
p179
g45
sS'charing'
p180
g45
sS'snaresbrook'
p181
g45
sS'deptford'
p182
g45
sS'chigwell'
p183
g45
sS'kew'
p184
g45
sS'redbridge'
p185
g45
sS'stepney'
p186
g45
sS'moorgate'
p187
g45
sS'chorleywood'
p188
g45
sS'water'
p189
g45
sS'great'
p190
g45
sS'central'
p191
g71
sS'waterloo'
p192
g71
sS'hainault'
p193
g45
sS'island'
p194
g45
sS'archway'
p195
g45
sS'elm'
p196
g45
sS'terminals'
p197
g45
sS'hendon'
p198
g45
sS'bow'
p199
g45
sS'gants'
p200
g45
sS'airport'
p201
g45
sS'pudding'
p202
g45
sS'castle'
p203
g45
sS'canning'
p204
g45
sS'south'
p205
g45
sS'gloucester'
p206
g45
sS'westminster'
p207
g45
sS'heron'
p208
g45
sS'silvertown'
p209
g45
sS'saints'
p210
g45
sS'arsenal'
p211
g45
sS'upney'
p212
g45
sS'hanger'
p213
g45
sS'watford'
p214
g45
sS'church'
p215
g45
sS'oval'
p216
g45
sS'stonebridge'
p217
g45
sS'george'
p218
g45
sS'market'
p219
g45
sS'kentish'
p220
g45
sS'sark'
p221
g45
sS'chiswick'
p222
g45
sS'southfields'
p223
g45
sS'russell'
p224
g45
sS'district'
p225
g71
sS'totteridge'
p226
g45
sS'west'
p227
g45
sS'st.'
p228
g45
sS'limehouse'
p229
g45
sS'eastcote'
p230
g45
sS'finsbury'
p231
g45
sS'custom'
p232
g45
sS'grange'
p233
g45
sS'2'
g45
sS'goodge'
p234
g45
sS'putney'
p235
g45
sS'white'
p236
g45
sS'valley'
p237
g45
sS'newbury'
p238
g45
sS'cutty'
p239
g45
sS'goldhawk'
p240
g45
sS'aldgate'
p241
g45
sS'quay'
p242
g45
sS'dagenham'
p243
g45
sS'on'
p244
g45
sS'warwick'
p245
g45
sS'albert'
p246
g45
sS'holborn'
p247
g45
sS'northwood'
p248
g45
sS'whetstone'
p249
g45
sS'bromley-by-bow'
p250
g45
sS'mill'
p251
g45
sS'alperton'
p252
g45
sS'westbourne'
p253
g45
sS'camden'
p254
g45
sS'cottage'
p255
g45
sS'osterley'
p256
g45
sS'gunnersbury'
p257
g45
sS'shadwell'
p258
g45
sS'blackwall'
p259
g45
sS'town'
p260
g45
sS'king'
p261
g45
sS'john'
p262
g45
sS'holland'
p263
g45
sS'sloane'
p264
g45
sS'blackfriars'
p265
g45
sS'willesden'
p266
g45
sS'bec'
p267
g45
sS'richmond'
p268
g45
sS'woodford'
p269
g45
sS'bounds'
p270
g45
sS'hounslow'
p271
g45
sS'chalk'
p272
g45
sS'v'
g45
sS'perivale'
p273
g45
sS'southgate'
p274
g45
sS'barkingside'
p275
g45
sS'marble'
p276
g45
sS'bakerloo'
p277
g71
sS'sudbury'
p278
g45
sS'and'
p279
g45
sS'bridge'
p280
g45
sS'seven'
p281
g45
sS'wanstead'
p282
g45
sS'belsize'
p283
g45
sS'angel'
p284
g45
sS'shepherd'
p285
g45
sS'leytonstone'
p286
g45
sS'gallions'
p287
g45
sS'preston'
p288
g45
sS'circus'
p289
g45
sS'india'
p290
g45
sS'chalfont'
p291
g45
sS'blackhorse'
p292
g45
sS'tooting'
p293
g45
sS'high'
p294
g45
sS'tufnell'
p295
g45
sS'kenton'
p296
g45
sS'kilburn'
p297
g45
sS'kingsbury'
p298
g45
sS'devons'
p299
g45
sS'north'
p300
g45
sS'greenwich'
p301
g45
sS'crossharbour'
p302
g45
sS'portland'
p303
g45
sS'marylebone'
p304
g45
sS'hillingdon'
p305
g45
sS'stamford'
p306
g45
sS'borough'
p307
g45
sS'end'
p308
g45
sS'turnpike'
p309
g45
sS'farringdon'
p310
g45
sS'oakwood'
p311
g45
sS')'
g45
sS'leyton'
p312
g45
sS'oak'
p313
g45
sS'cross'
p314
g45
sS'barnet'
p315
g45
sS'heathrow'
p316
g45
sS'1'
g45
sS'acton'
p317
g45
sS'5'
g45
sS'plaistow'
p318
g45
sS'quays'
p319
g45
sS'elephant'
p320
g45
sS'hatton'
p321
g45
sS'maida'
p322
g45
sS'bois'
p323
g45
sS'wimbledon'
p324
g45
sS'court'
p325
g45
sS'pinner'
p326
g45
sS'highgate'
p327
g45
sS'ham'
p328
g45
sS'star'
p329
g45
sS'northfields'
p330
g45
sS'manor'
p331
g45
sS'farm'
p332
g45
sS'highbury'
p333
g45
sS'liverpool'
p334
g45
sS'wharf'
p335
g45
sS'reach'
p336
g45
sS'rayners'
p337
g45
sS'elverson'
p338
g45
sS'victoria'
p339
g71
sS'boston'
p340
g45
sS'kensal'
p341
g45
sS'notting'
p342
g45
sS'ruislip'
p343
g45
sS'stanmore'
p344
g45
sS'sisters'
p345
g45
sS'queensbury'
p346
g45
sS'chancery'
p347
g45
sS'arch'
p348
g45
sS'ravenscourt'
p349
g45
sS'harlesden'
p350
g45
sS'lane'
p351
g45
sS'upminster'
p352
g45
sS'turnham'
p353
g45
sS'metropolitan'
p354
g71
sS'covent'
p355
g45
sS'grove'
p356
g45
sS'brook'
p357
g45
sS'parsons'
p358
g45
sS'becontree'
p359
g45
sS'buckhurst'
p360
g45
sS'balham'
p361
g45
sS'green'
p362
g45
sS'road'
p363
g45
sS'bayswater'
p364
g45
sS'swiss'
p365
g45
sS'the'
p366
g45
sS'vauxhall'
p367
g45
sS'tottenham'
p368
g45
sS'gardens'
p369
g45
sS'ladbroke'
p370
g45
ssbag13
asg41
I2
sg42
(dp371
((g19
tS'piccadilly'
p372
tp373
g45
s((g19
tS'victoria'
p374
tp375
g45
s((g45
tS'hammersmith'
p376
tp377
g45
s((g45
tS'circle'
p378
tp379
g45
s((g45
tS'victoria'
p380
tp381
g45
s((g45
tS'district'
p382
tp383
g45
s((g22
tg372
tp384
g45
s((g19
tS'hammersmith'
p385
tp386
g45
s((g22
tg374
tp387
g45
s((g22
tS'waterloo'
p388
tp389
g45
s((g45
tS'piccadilly'
p390
tp391
g45
s((tg374
tp392
g71
s((tg372
tp393
g71
s((g45
tS'central'
p394
tp395
g45
s((tg385
tp396
g71
s((g45
tS'bakerloo'
p397
tp398
g45
s((tg388
tp399
g71
s((g22
tg385
tp400
g45
s((g19
tg388
tp401
g45
ssb.