ccopy_reg
_reconstructor
p1
(cnltk.tag.sequential
BigramTagger
p2
c__builtin__
object
p3
NtRp4
(dp5
S'_taggers'
p6
(lp7
g4
ag1
(cnltk.tag.sequential
UnigramTagger
p8
g3
NtRp9
(dp10
g6
(lp11
g9
ag1
(cnltk.tag.sequential
RegexpTagger
p12
g3
NtRp13
(dp14
g6
(lp15
g13
asS'_regexps'
p16
(lp17
(S'^(from)$'
p18
S'FROM'
p19
tp20
a(S'^to(wards)?$'
p21
S'TO'
p22
tp23
a(S'^(and|&)$'
p24
S'AND'
p25
tp26
a(S'^city$'
p27
S'CITY'
p28
tp29
a(S'^line$'
p30
S'LINE'
p31
tp32
a(S'.*bound$'
p33
S'DIRECTION'
p34
tp35
a(S'^(please|thanks|thank|you)$'
p36
Ntp37
a(S'^docklands (light rail(way)?)?$'
p38
S'DLR_LINE_NAME'
p39
tp40
a(S'.*'
p41
S'UNKNOWN'
p42
tp43
asbasS'_n'
p44
I1
sS'_context_to_tag'
p45
(dp46
S'mudchute'
p47
S'STATION_WORD'
p48
sS'all'
p49
g48
sS'beckton'
p50
g48
sS'northolt'
p51
g48
sS'barking'
p52
g48
sS'leicester'
p53
g48
sS'ickenham'
p54
g48
sS'greenford'
p55
g48
sS'langdon'
p56
g48
sS'poplar'
p57
g48
sS'canary'
p58
g48
sS'cross'
p59
g48
sS'mile'
p60
g48
sS'london'
p61
g48
sS'barons'
p62
g48
sS'mansion'
p63
g48
sS'broadway'
p64
g48
sS'barbican'
p65
g48
sS'avenue'
p66
g48
sS'prince'
p67
g48
sS'arnos'
p68
g48
sS'mornington'
p69
g48
sS'marble'
p70
g48
sS'colliers'
p71
g48
sS'(circle'
p72
g48
sS'park'
p73
g48
sS'hills'
p74
g48
sS'northern'
p75
S'TUBE_LINE_WORD'
p76
sS'upton'
p77
g48
sS'square'
p78
g48
sS'heron'
p79
g48
sS'royal'
p80
g48
sS'woolwich'
p81
g48
sS'abbey'
p82
g48
sS'croxley'
p83
g48
sS'terminal'
p84
g48
sS'bush'
p85
g48
sS'wood'
p86
g48
sS'4'
g48
sS'2,'
p87
g48
sS'knightsbridge'
p88
g48
sS'circle'
p89
g76
sS'east'
p90
g48
sS'epping'
p91
g48
sS'woodside'
p92
g48
sS'rickmansworth'
p93
g48
sS'junction'
p94
g48
sS'garden'
p95
g48
sS'roding'
p96
g48
sS'hornchurch'
p97
g48
sS'cannon'
p98
g48
sS'latimer'
p99
g48
sS'queensway'
p100
g48
sS'loughton'
p101
g48
sS'dock'
p102
g48
sS'fulham'
p103
g48
sS'hale'
p104
g48
sS'northwick'
p105
g48
sS'stockwell'
p106
g48
sS'oxford'
p107
g48
sS'piccadilly)'
p108
g48
sS'burnt'
p109
g48
sS'harrow'
p110
g48
sS'bank'
p111
g48
sS'holloway'
p112
g48
sS'hammersmith'
p113
g76
sS'perivale'
p114
g48
sS'golders'
p115
g48
sS'whitechapel'
p116
g48
sS'edgware'
p117
g48
sS'dollis'
p118
g48
sS'walthamstow'
p119
g48
sS'cockfosters'
p120
g48
sS'baker'
p121
g48
sS'uxbridge'
p122
g48
sS'clapham'
p123
g48
sS'common'
p124
g48
sS'embankment'
p125
g48
sS'harlesden'
p126
g48
sS'warren'
p127
g48
sS'stratford'
p128
g48
sS'tower'
p129
g48
sS'ealing'
p130
g48
sS'bond'
p131
g48
sS'wealdstone'
p132
g48
sS'hanger'
p133
g48
sS'old'
p134
g48
sS'house'
p135
g48
sS'chesham'
p136
g48
sS'brixton'
p137
g48
sS'neasden'
p138
g48
sS'covent'
p139
g48
sS'finchley'
p140
g48
sS'caledonian'
p141
g48
sS'street'
p142
g48
sS"earl's"
p143
g48
sS'crescent'
p144
g48
sS'corner'
p145
g48
sS'pancras'
p146
g48
sS'star'
p147
g48
sS'euston'
p148
g48
sS'bromley-by-bow'
p149
g48
sS'brent'
p150
g48
sS'heathway'
p151
g48
sS'canada'
p152
g48
sS'amersham'
p153
g48
sS'islington'
p154
g48
sS'southwark'
p155
g48
sS'pimlico'
p156
g48
sS'cyprus'
p157
g48
sS'lewisham'
p158
g48
sS'kensington'
p159
g48
sS"james's"
p160
g48
sS'canons'
p161
g48
sS'gateway'
p162
g48
sS'debden'
p163
g48
sS'dlr'
p164
g76
sS'3'
g48
sS'moor'
p165
g48
sS'bermondsey'
p166
g48
sS'hill'
p167
g48
sS'morden'
p168
g48
sS'international'
p169
g48
sS'wembley'
p170
g48
sS'brompton'
p171
g48
sS'temple'
p172
g48
sS'gate'
p173
g48
sS'bethnal'
p174
g48
sS'lancaster'
p175
g48
sS'westferry'
p176
g48
sS'jubilee'
p177
g76
sS'piccadilly'
p178
g76
sS'hampstead'
p179
g48
sS'monument'
p180
g48
sS'pontoon'
p181
g48
sS"shepherd's"
p182
g48
sS'vale'
p183
g48
sS'crossharbour'
p184
g48
sS'paddington'
p185
g48
sS'colindale'
p186
g48
sS'charing'
p187
g48
sS'snaresbrook'
p188
g48
sS'deptford'
p189
g48
sS'chigwell'
p190
g48
sS'kew'
p191
g48
sS'victoria'
p192
g76
sS'redbridge'
p193
g48
sS'stepney'
p194
g48
sS'moorgate'
p195
g48
sS'chorleywood'
p196
g48
sS'water'
p197
g48
sS'great'
p198
g48
sS'central'
p199
g76
sS'waterloo'
p200
g76
sS'hainault'
p201
g48
sS'island'
p202
g48
sS'archway'
p203
g48
sS'elm'
p204
g48
sS'terminals'
p205
g48
sS'hendon'
p206
g48
sS'bow'
p207
g48
sS'gants'
p208
g48
sS'airport'
p209
g48
sS'pudding'
p210
g48
sS'castle'
p211
g48
sS'canning'
p212
g48
sS'south'
p213
g48
sS'(district'
p214
g48
sS'regent'
p215
g48
sS'silvertown'
p216
g48
sS'saints'
p217
g48
sS'arsenal'
p218
g48
sS'upney'
p219
g48
sS'city)'
p220
g48
sS'watford'
p221
g48
sS'church'
p222
g48
sS'oval'
p223
g48
sS'theydon'
p224
g48
sS'stonebridge'
p225
g48
sS'george'
p226
g48
sS'market'
p227
g48
sS'kentish'
p228
g48
sS'sark'
p229
g48
sS'chiswick'
p230
g48
sS'southfields'
p231
g48
sS'russell'
p232
g48
sS'district'
p233
g76
sS'totteridge'
p234
g48
sS'west'
p235
g48
sS'st.'
p236
g48
sS'limehouse'
p237
g48
sS'eastcote'
p238
g48
sS'finsbury'
p239
g48
sS'custom'
p240
g48
sS'grange'
p241
g48
sS'goodge'
p242
g48
sS'putney'
p243
g48
sS'white'
p244
g48
sS'valley'
p245
g48
sS'newbury'
p246
g48
sS'cutty'
p247
g48
sS'goldhawk'
p248
g48
sS'stamford'
p249
g48
sS'aldgate'
p250
g48
sS'quay'
p251
g48
sS'dagenham'
p252
g48
sS'on'
p253
g48
sS'warwick'
p254
g48
sS'albert'
p255
g48
sS'holborn'
p256
g48
sS'northwood'
p257
g48
sS'kensal'
p258
g48
sS'mill'
p259
g48
sS'alperton'
p260
g48
sS'westbourne'
p261
g48
sS'camden'
p262
g48
sS'cottage'
p263
g48
sS'kennington'
p264
g48
sS'osterley'
p265
g48
sS'gunnersbury'
p266
g48
sS'shadwell'
p267
g48
sS'blackwall'
p268
g48
sS'town'
p269
g48
sS'king'
p270
g48
sS'queensbury'
p271
g48
sS'holland'
p272
g48
sS'sloane'
p273
g48
sS'blackfriars'
p274
g48
sS'willesden'
p275
g48
sS'bec'
p276
g48
sS'richmond'
p277
g48
sS'woodford'
p278
g48
sS'bounds'
p279
g48
sS'hounslow'
p280
g48
sS'chalk'
p281
g48
sS'vauxhall'
p282
g48
sS'v'
g48
sS'hyde'
p283
g48
sS'(bakerloo)'
p284
g48
sS'southgate'
p285
g48
sS'barkingside'
p286
g48
sS'1,'
p287
g48
sS'bakerloo'
p288
g76
sS'sudbury'
p289
g48
sS'bridge'
p290
g48
sS'seven'
p291
g48
sS'wanstead'
p292
g48
sS'belsize'
p293
g48
sS'angel'
p294
g48
sS'leytonstone'
p295
g48
sS'gallions'
p296
g48
sS'preston'
p297
g48
sS'circus'
p298
g48
sS'india'
p299
g48
sS'chalfont'
p300
g48
sS'blackhorse'
p301
g48
sS'tooting'
p302
g48
sS'high'
p303
g48
sS'tufnell'
p304
g48
sS'(hammersmith'
p305
g48
sS"queen's"
p306
g48
sS'kilburn'
p307
g48
sS'kingsbury'
p308
g48
sS'devons'
p309
g48
sS'north'
p310
g48
sS'greenwich'
p311
g48
sS'portland'
p312
g48
sS'marylebone'
p313
g48
sS'hillingdon'
p314
g48
sS'lambeth'
p315
g48
sS'borough'
p316
g48
sS'end'
p317
g48
sS'turnpike'
p318
g48
sS'farringdon'
p319
g48
sS'oakwood'
p320
g48
sS'leyton'
p321
g48
sS'oak'
p322
g48
sS"king's"
p323
g48
sS'barnet'
p324
g48
sS'heathrow'
p325
g48
sS'westminster'
p326
g48
sS'acton'
p327
g48
sS'5'
g48
sS'plaistow'
p328
g48
sS'quays'
p329
g48
sS'elephant'
p330
g48
sS'hatton'
p331
g48
sS'maida'
p332
g48
sS'kenton'
p333
g48
sS'bois'
p334
g48
sS'wimbledon'
p335
g48
sS'court'
p336
g48
sS'pinner'
p337
g48
sS'highgate'
p338
g48
sS'ham'
p339
g48
sS'fairlop'
p340
g48
sS'northfields'
p341
g48
sS'manor'
p342
g48
sS'farm'
p343
g48
sS'highbury'
p344
g48
sS'liverpool'
p345
g48
sS'wharf'
p346
g48
sS'reach'
p347
g48
sS'rayners'
p348
g48
sS'elverson'
p349
g48
sS'(olympia)'
p350
g48
sS'boston'
p351
g48
sS'notting'
p352
g48
sS'ruislip'
p353
g48
sS'stanmore'
p354
g48
sS'sisters'
p355
g48
sS'bayswater'
p356
g48
sS'chancery'
p357
g48
sS'arch'
p358
g48
sS'ravenscourt'
p359
g48
sS'whetstone'
p360
g48
sS'lane'
p361
g48
sS"john's"
p362
g48
sS'upminster'
p363
g48
sS'turnham'
p364
g48
sS'metropolitan'
p365
g76
sS'grove'
p366
g48
sS'brook'
p367
g48
sS'parsons'
p368
g48
sS"regent's"
p369
g48
sS'becontree'
p370
g48
sS'buckhurst'
p371
g48
sS'balham'
p372
g48
sS'green'
p373
g48
sS'road'
p374
g48
sS"paul's"
p375
g48
sS'swiss'
p376
g48
sS'the'
p377
g48
sS'gloucester'
p378
g48
sS'tottenham'
p379
g48
sS'gardens'
p380
g48
sS'ladbroke'
p381
g48
ssbag13
asg44
I2
sg45
(dp382
((g19
tS'piccadilly'
p383
tp384
g48
s((g19
tS'victoria'
p385
tp386
g48
s((g48
tS'hammersmith'
p387
tp388
g48
s((g48
tS'victoria'
p389
tp390
g48
s((g22
tg383
tp391
g48
s((g19
tS'hammersmith'
p392
tp393
g48
s((g22
tg385
tp394
g48
s((g22
tS'waterloo'
p395
tp396
g48
s((tg395
tp397
g76
s((tg385
tp398
g76
s((tg383
tp399
g76
s((g48
tS'central'
p400
tp401
g48
s((tg392
tp402
g76
s((g19
tg395
tp403
g48
s((g22
tg392
tp404
g48
ssb.