ccopy_reg
_reconstructor
p1
(cnltk.tag.sequential
BigramTagger
p2
c__builtin__
object
p3
NtRp4
(dp5
S'_taggers'
p6
(lp7
g4
ag1
(cnltk.tag.sequential
UnigramTagger
p8
g3
NtRp9
(dp10
g6
(lp11
g9
ag1
(cnltk.tag.sequential
RegexpTagger
p12
g3
NtRp13
(dp14
g6
(lp15
g13
asS'_regexps'
p16
(lp17
(S'^(from|From)$'
p18
S'FROM'
p19
tp20
a(S'^to(wards)?$'
p21
S'TO'
p22
tp23
a(S'^(line|Line)?$'
p24
S'LINE'
p25
tp26
a(S'^(please|thanks|thank|you)$'
p27
Ntp28
a(S'^Docklands (Light Rail(way)?)?$'
p29
S'DLR_LINE_NAME'
p30
tp31
a(S'.*'
p32
S'UNKNOWN'
p33
tp34
asbasS'_n'
p35
I1
sS'_context_to_tag'
p36
(dp37
S'Canada'
p38
S'STATION_WORD'
p39
sS'Jubilee'
p40
S'TUBE_LINE'
p41
sS'Southfields'
p42
g39
sS'Ham'
p43
g39
sS'Farringdon'
p44
g39
sS'Upton'
p45
g39
sS'Pontoon'
p46
g39
sS'Leyton'
p47
g39
sS'Ickenham'
p48
g39
sS'Kennington'
p49
g39
sS'Barnet'
p50
g39
sS'Croxley'
p51
g39
sS'Debden'
p52
g39
sS'Woolwich'
p53
g39
sS'Moor'
p54
g39
sS'Hill'
p55
g39
sS'Elephant'
p56
g39
sS'Gate'
p57
g39
sS'White'
p58
g39
sS'Northern'
p59
g41
sS'Hills'
p60
g39
sS'Chalk'
p61
g39
sS'Highgate'
p62
g39
sS'Liverpool'
p63
g39
sS'Brook'
p64
g39
sS'('
g39
sS'Latimer'
p65
g39
sS'Piccadilly'
p66
g41
sS'3'
g39
sS'Custom'
p67
g39
sS'Victoria'
p68
g41
sS'Paddington'
p69
g39
sS'Balham'
p70
g39
sS'4'
g39
sS'Northwick'
p71
g39
sS'Stockwell'
p72
g39
sS'Cottage'
p73
g39
sS'Westbourne'
p74
g39
sS'Chancery'
p75
g39
sS'Burnt'
p76
g39
sS'Lewisham'
p77
g39
sS'Great'
p78
g39
sS'Mudchute'
p79
g39
sS'Heron'
p80
g39
sS'East'
p81
g39
sS'Waterloo'
p82
g41
sS'Kensington'
p83
g39
sS'Albert'
p84
g39
sS'Hendon'
p85
g39
sS'Cockfosters'
p86
g39
sS'Kew'
p87
g39
sS'Clapham'
p88
g39
sS'Hatton'
p89
g39
sS'Moorgate'
p90
g39
sS'Tower'
p91
g39
sS'Barkingside'
p92
g39
sS'Osterley'
p93
g39
sS'Gloucester'
p94
g39
sS'Olympia'
p95
g39
sS'Boston'
p96
g39
sS'Wharf'
p97
g39
sS'Northolt'
p98
g39
sS'Belsize'
p99
g39
sS'Angel'
p100
g39
sS'Redbridge'
p101
g39
sS'India'
p102
g39
sS'Canary'
p103
g39
sS'Harrow'
p104
g39
sS'Mile'
p105
g39
sS'London'
p106
g39
sS'Pancras'
p107
g39
sS'Broadway'
p108
g39
sS'Mill'
p109
g39
sS'Prince'
p110
g39
sS'Brent'
p111
g39
sS'Warren'
p112
g39
sS'Bois'
p113
g39
sS'Lambeth'
p114
g39
sS'End'
p115
g39
sS'District'
p116
g41
sS'Hounslow'
p117
g39
sS'West'
p118
g39
sS'Warwick'
p119
g39
sS'Saints'
p120
g39
sS'Cyprus'
p121
g39
sS'Water'
p122
g39
sS'Acton'
p123
g39
sS'Kentish'
p124
g39
sS'Rickmansworth'
p125
g39
sS'Tufnell'
p126
g39
sS'Circle'
p127
g41
sS'Queensbury'
p128
g39
sS'Bromley-by-Bow'
p129
g39
sS'Shepherd'
p130
g39
sS'Woodside'
p131
g39
sS'Bethnal'
p132
g39
sS'Fairlop'
p133
g39
sS'Northfields'
p134
g39
sS'Tottenham'
p135
g39
sS'Park'
p136
g39
sS'Rayners'
p137
g39
sS'Temple'
p138
g39
sS'Kensal'
p139
g39
sS'Alperton'
p140
g39
sS'Terminals'
p141
g39
sS'Charing'
p142
g39
sS'Snaresbrook'
p143
g39
sS'Kingsbury'
p144
g39
sS'Upney'
p145
g39
sS'Bayswater'
p146
g39
sS'Stepney'
p147
g39
sS'Holloway'
p148
g39
sS'Town'
p149
g39
sS'Blackfriars'
p150
g39
sS'Central'
p151
g41
sS'Amersham'
p152
g39
sS'Westferry'
p153
g39
sS'Grove'
p154
g39
sS'Woodford'
p155
g39
sS'Baker'
p156
g39
sS'Russell'
p157
g39
sS'Parsons'
p158
g39
sS'Sark'
p159
g39
sS'Bow'
p160
g39
sS'Gants'
p161
g39
sS'DLR'
p162
g41
sS'Bakerloo'
p163
g41
sS'Green'
p164
g39
sS'Corner'
p165
g39
sS'Chigwell'
p166
g39
sS'Harlesden'
p167
g39
sS'Canning'
p168
g39
sS'Bridge'
p169
g39
sS'Paul'
p170
g39
sS'Holland'
p171
g39
sS'on'
p172
g39
sS'Wealdstone'
p173
g39
sS'Beckton'
p174
g39
sS'Willesden'
p175
g39
sS'Perivale'
p176
g39
sS'Barons'
p177
g39
sS'Hyde'
p178
g39
sS'Gallions'
p179
g39
sS'Hale'
p180
g39
sS'Circus'
p181
g39
sS'Langdon'
p182
g39
sS'Epping'
p183
g39
sS'Blackhorse'
p184
g39
sS'George'
p185
g39
sS'Finchley'
p186
g39
sS'Watford'
p187
g39
sS'Heathrow'
p188
g39
sS'Pudding'
p189
g39
sS'Euston'
p190
g39
sS'Chiswick'
p191
g39
sS'Camden'
p192
g39
sS'Arnos'
p193
g39
sS'Heathway'
p194
g39
sS'Marylebone'
p195
g39
sS'Lancaster'
p196
g39
sS'Greenwich'
p197
g39
sS'Elm'
p198
g39
sS'St.'
p199
g39
sS'Devons'
p200
g39
sS'Royal'
p201
g39
sS'Theydon'
p202
g39
sS'Canons'
p203
g39
sS'Leytonstone'
p204
g39
sS'Richmond'
p205
g39
sS'Plaistow'
p206
g39
sS'Southwark'
p207
g39
sS'Bermondsey'
p208
g39
sS'Elverson'
p209
g39
sS'Hanger'
p210
g39
sS'Court'
p211
g39
sS'Brompton'
p212
g39
sS'the'
p213
g39
sS'Newbury'
p214
g39
sS'Cutty'
p215
g39
sS'Aldgate'
p216
g39
sS'North'
p217
g39
sS'Pinner'
p218
g39
sS'Colliers'
p219
g39
sS'&'
g41
sS'Farm'
p220
g39
sS'Morden'
p221
g39
sS'Totteridge'
p222
g39
sS'Crossharbour'
p223
g39
sS'Vale'
p224
g39
sS'Northwood'
p225
g39
sS'Whetstone'
p226
g39
sS'2'
g39
sS'Stanmore'
p227
g39
sS'Gunnersbury'
p228
g39
sS'Arch'
p229
g39
sS'Hammersmith'
p230
g41
sS'Lane'
p231
g39
sS'Deptford'
p232
g39
sS'Star'
p233
g39
sS'Archway'
p234
g39
sS'Bec'
p235
g39
sS'Edgware'
p236
g39
sS'Wanstead'
p237
g39
sS'Hillingdon'
p238
g39
sS'Square'
p239
g39
sS'V'
g39
sS'Turnpike'
p240
g39
sS'Castle'
p241
g39
sS'Southgate'
p242
g39
sS','
g39
sS'Road'
p243
g39
sS'Terminal'
p244
g39
sS'Seven'
p245
g39
sS'Greenford'
p246
g39
sS'Old'
p247
g39
sS'Mornington'
p248
g39
sS'Sisters'
p249
g39
sS'House'
p250
g39
sS'Chesham'
p251
g39
sS'Walthamstow'
p252
g39
sS'Brixton'
p253
g39
sS'Queensway'
p254
g39
sS'Eastcote'
p255
g39
sS'Holborn'
p256
g39
sS'Sloane'
p257
g39
sS'Dollis'
p258
g39
sS'Church'
p259
g39
sS'Oval'
p260
g39
sS'Kilburn'
p261
g39
sS'Barbican'
p262
g39
sS'Borough'
p263
g39
sS'Avenue'
p264
g39
sS'Hainault'
p265
g39
sS'Stonebridge'
p266
g39
sS'and'
p267
g39
sS'City'
p268
g41
sS'Islington'
p269
g39
sS'Queen'
p270
g39
sS'Limehouse'
p271
g39
sS'Pimlico'
p272
g39
sS'Oakwood'
p273
g39
sS'Upminster'
p274
g39
sS'Sudbury'
p275
g39
sS'Regent'
p276
g39
sS'Chorleywood'
p277
g39
sS'Cross'
p278
g39
sS'Finsbury'
p279
g39
sS'Arsenal'
p280
g39
sS'Grange'
p281
g39
sS'Bush'
p282
g39
sS'Wood'
p283
g39
sS'Ladbroke'
p284
g39
sS'Goodge'
p285
g39
sS'Quays'
p286
g39
sS'International'
p287
g39
sS'Notting'
p288
g39
sS'Whitechapel'
p289
g39
sS'Maida'
p290
g39
sS'Wembley'
p291
g39
sS'Wimbledon'
p292
g39
sS'Golders'
p293
g39
sS'Tooting'
p294
g39
sS'John'
p295
g39
sS'Garden'
p296
g39
sS'Manor'
p297
g39
sS'Valley'
p298
g39
sS')'
g39
sS'Cannon'
p299
g39
sS'Hampstead'
p300
g39
sS'Highbury'
p301
g39
sS'Reach'
p302
g39
sS'Caledonian'
p303
g39
sS'1'
g39
sS'Dock'
p304
g39
sS'Fulham'
p305
g39
sS'5'
g39
sS'Ruislip'
p306
g39
sS'Island'
p307
g39
sS'Oxford'
p308
g39
sS'Stratford'
p309
g39
sS'Bounds'
p310
g39
sS'Neasden'
p311
g39
sS'Airport'
p312
g39
sS'Ravenscourt'
p313
g39
sS'Bank'
p314
g39
sS'Preston'
p315
g39
sS'Westminster'
p316
g39
sS"'s"
p317
g39
sS'James'
p318
g39
sS'Goldhawk'
p319
g39
sS'Dagenham'
p320
g39
sS'Colindale'
p321
g39
sS'Covent'
p322
g39
sS'Turnham'
p323
g39
sS'Becontree'
p324
g39
sS'Uxbridge'
p325
g39
sS'Buckhurst'
p326
g39
sS'Kenton'
p327
g39
sS'Market'
p328
g39
sS'Common'
p329
g39
sS'Embankment'
p330
g39
sS'Monument'
p331
g39
sS'Swiss'
p332
g39
sS'Junction'
p333
g39
sS'Oak'
p334
g39
sS'Ealing'
p335
g39
sS'Gardens'
p336
g39
sS'South'
p337
g39
sS'Bond'
p338
g39
sS'Putney'
p339
g39
sS'Silvertown'
p340
g39
sS'All'
p341
g39
sS'Chalfont'
p342
g39
sS'Blackwall'
p343
g39
sS'Barking'
p344
g39
sS'Metropolitan'
p345
g41
sS'Leicester'
p346
g39
sS'King'
p347
g39
sS'Loughton'
p348
g39
sS'Marble'
p349
g39
sS'Roding'
p350
g39
sS'Vauxhall'
p351
g39
sS'High'
p352
g39
sS'Hornchurch'
p353
g39
sS'Abbey'
p354
g39
sS'Street'
p355
g39
sS'Stamford'
p356
g39
sS'Quay'
p357
g39
sS'Knightsbridge'
p358
g39
sS'Mansion'
p359
g39
sS'Poplar'
p360
g39
sS'Portland'
p361
g39
sS'Crescent'
p362
g39
sS'Earl'
p363
g39
sS'Gateway'
p364
g39
sS'Shadwell'
p365
g39
ssbag13
asg35
I2
sg36
(dp366
((g39
tS'City'
p367
tp368
g39
s((g19
tS'Piccadilly'
p369
tp370
g39
s((g39
tS'Hammersmith'
p371
tp372
g39
s((g39
tS'Circle'
p373
tp374
g39
s((g39
tS'Victoria'
p375
tp376
g39
s((g39
tS'District'
p377
tp378
g39
s((g22
tg369
tp379
g39
s((g19
tS'Hammersmith'
p380
tp381
g39
s((g39
tS'&'
tp382
g39
s((g39
tS'Piccadilly'
p383
tp384
g39
s((tS'Victoria'
p385
tp386
g41
s((g19
tg385
tp387
g39
s((tg369
tp388
g41
s((g22
tS'Waterloo'
p389
tp390
g39
s((g22
tg385
tp391
g39
s((g39
tS'Central'
p392
tp393
g39
s((tg380
tp394
g41
s((g39
tS'Bakerloo'
p395
tp396
g39
s((tg389
tp397
g41
s((g22
tg380
tp398
g39
s((g19
tg389
tp399
g39
ssb.